target datalayout = "e-m:e-p270:32:32-p271:32:32-p272:64:64-i64:64-i128:128-f80:128-n8:16:32:64-S128"
target triple = "x86_64-unknown-linux-gnu"

@zmalloc_oom_handler = internal global ptr @zmalloc_default_oom, align 8
@used_memory = internal global i64 0, align 8

; Function Attrs: nounwind uwtable
define dso_local noalias ptr @zmalloc_no_tcache(i64 noundef %size) #0 {
entry:
  %size.addr = alloca i64, align 8
  %ptr = alloca ptr, align 8
  %.atomictmp = alloca i64, align 8
  %atomic-temp = alloca i64, align 8
  store i64 %size, ptr %size.addr, align 8
  %0 = load i64, ptr %size.addr, align 8
  %cmp = icmp uge i64 %0, 9223372036854775807
  br i1 %cmp, label %if.then, label %if.end

if.then:                                          ; preds = %entry
  %1 = load ptr, ptr @zmalloc_oom_handler, align 8
  %2 = load i64, ptr %size.addr, align 8
  call void %1(i64 noundef %2)
  br label %if.end

if.end:                                           ; preds = %if.then, %entry
  %3 = load i64, ptr %size.addr, align 8
  %add = add i64 %3, 0
  %call = call noalias ptr @je_mallocx(i64 noundef %add, i32 noundef 256) #14
  store ptr %call, ptr %ptr, align 8
  %4 = load ptr, ptr %ptr, align 8
  %tobool = icmp ne ptr %4, null
  br i1 %tobool, label %if.end2, label %if.then1

if.then1:                                         ; preds = %if.end
  %5 = load ptr, ptr @zmalloc_oom_handler, align 8
  %6 = load i64, ptr %size.addr, align 8
  call void %5(i64 noundef %6)
  br label %if.end2

if.end2:                                          ; preds = %if.then1, %if.end
  %7 = load ptr, ptr %ptr, align 8
  %call3 = call i64 @je_malloc_usable_size(ptr noundef %7) #12
  store i64 %call3, ptr %.atomictmp, align 8
  %8 = load i64, ptr %.atomictmp, align 8
  %9 = atomicrmw add ptr @used_memory, i64 %8 monotonic, align 8
  store i64 %9, ptr %atomic-temp, align 8
  %10 = load ptr, ptr %ptr, align 8
  ret ptr %10
}