; Function Attrs: nounwind uwtable
define dso_local noalias ptr @zmalloc_no_tcache(i64 noundef %size) local_unnamed_addr #3 {
entry:
  %cmp = icmp ugt i64 %size, 9223372036854775806
  br i1 %cmp, label %if.then, label %if.end

if.then:                                          ; preds = %entry
  %0 = load ptr, ptr @zmalloc_oom_handler, align 8
  tail call void %0(i64 noundef %size) #24
  br label %if.end

if.end:                                           ; preds = %if.then, %entry
  %call = tail call noalias ptr @je_mallocx(i64 noundef %size, i32 noundef 256) #25
  %tobool.not = icmp eq ptr %call, null
  br i1 %tobool.not, label %if.then1, label %if.end2

if.then1:                                         ; preds = %if.end
  %1 = load ptr, ptr @zmalloc_oom_handler, align 8
  tail call void %1(i64 noundef %size) #24
  br label %if.end2

if.end2:                                          ; preds = %if.then1, %if.end
  %call3 = tail call i64 @je_malloc_usable_size(ptr noundef %call) #24
  %2 = atomicrmw add ptr @used_memory, i64 %call3 monotonic, align 8
  ret ptr %call
}